; Function Attrs: mustprogress uwtable
define dso_local void @_ZN4base9SampleMapC2Ev(ptr noundef nonnull align 8 dereferenceable(88) %this) unnamed_addr #0 align 2 personality ptr @__gxx_personality_v0 {
entry:
  tail call void @_ZN4base16HistogramSamplesC2Em(ptr noundef nonnull align 8 dereferenceable(40) %this, i64 noundef 0)
  store ptr getelementptr inbounds ({ [13 x ptr] }, ptr @_ZTVN4base9SampleMapE, i64 0, i32 0, i64 2), ptr %this, align 8
  %0 = getelementptr inbounds i8, ptr %this, i64 48
  store i32 0, ptr %0, align 8
  %_M_parent.i.i.i.i.i.i = getelementptr inbounds i8, ptr %this, i64 56
  store ptr null, ptr %_M_parent.i.i.i.i.i.i, align 8
  %_M_left.i.i.i.i.i.i = getelementptr inbounds i8, ptr %this, i64 64
  store ptr %0, ptr %_M_left.i.i.i.i.i.i, align 8
  %_M_right.i.i.i.i.i.i = getelementptr inbounds i8, ptr %this, i64 72
  store ptr %0, ptr %_M_right.i.i.i.i.i.i, align 8
  %_M_node_count.i.i.i.i.i.i = getelementptr inbounds i8, ptr %this, i64 80
  store i64 0, ptr %_M_node_count.i.i.i.i.i.i, align 8
  ret void
}